target datalayout = "e-m:e-p270:32:32-p271:32:32-p272:64:64-i64:64-i128:128-f80:128-n8:16:32:64-S128"
target triple = "x86_64-pc-linux-gnu"

%struct.Vec_Int_t_ = type { i32, i32, ptr }
%struct.Cnf_Dat_t_ = type { ptr, i32, i32, i32, ptr, ptr, ptr, ptr, ptr, ptr }

; Function Attrs: inlinehint nounwind uwtable
define internal void @Vec_IntFreeP(ptr noundef %0) #5 {
  %2 = alloca ptr, align 8
  store ptr %0, ptr %2, align 8, !tbaa !68
  %3 = load ptr, ptr %2, align 8, !tbaa !68
  %4 = load ptr, ptr %3, align 8, !tbaa !24
  %5 = icmp eq ptr %4, null
  br i1 %5, label %6, label %7

6:                                                ; preds = %1
  br label %32

7:                                                ; preds = %1
  %8 = load ptr, ptr %2, align 8, !tbaa !68
  %9 = load ptr, ptr %8, align 8, !tbaa !24
  %10 = getelementptr inbounds nuw %struct.Vec_Int_t_, ptr %9, i32 0, i32 2
  %11 = load ptr, ptr %10, align 8, !tbaa !28
  %12 = icmp ne ptr %11, null
  br i1 %12, label %13, label %21

13:                                               ; preds = %7
  %14 = load ptr, ptr %2, align 8, !tbaa !68
  %15 = load ptr, ptr %14, align 8, !tbaa !24
  %16 = getelementptr inbounds nuw %struct.Vec_Int_t_, ptr %15, i32 0, i32 2
  %17 = load ptr, ptr %16, align 8, !tbaa !28
  call void @free(ptr noundef %17) #11
  %18 = load ptr, ptr %2, align 8, !tbaa !68
  %19 = load ptr, ptr %18, align 8, !tbaa !24
  %20 = getelementptr inbounds nuw %struct.Vec_Int_t_, ptr %19, i32 0, i32 2
  store ptr null, ptr %20, align 8, !tbaa !28
  br label %22

21:                                               ; preds = %7
  br label %22

22:                                               ; preds = %21, %13
  %23 = load ptr, ptr %2, align 8, !tbaa !68
  %24 = load ptr, ptr %23, align 8, !tbaa !24
  %25 = icmp ne ptr %24, null
  br i1 %25, label %26, label %30

26:                                               ; preds = %22
  %27 = load ptr, ptr %2, align 8, !tbaa !68
  %28 = load ptr, ptr %27, align 8, !tbaa !24
  call void @free(ptr noundef %28) #11
  %29 = load ptr, ptr %2, align 8, !tbaa !68
  store ptr null, ptr %29, align 8, !tbaa !24
  br label %31

30:                                               ; preds = %22
  br label %31

31:                                               ; preds = %30, %26
  br label %32

32:                                               ; preds = %31, %6
  ret void
}

; Function Attrs: nounwind uwtable
define void @Cnf_DataFree(ptr noundef %0) #0 {
  %2 = alloca ptr, align 8
  store ptr %0, ptr %2, align 8, !tbaa !32
  %3 = load ptr, ptr %2, align 8, !tbaa !32
  %4 = icmp eq ptr %3, null
  br i1 %4, label %5, label %6

5:                                                ; preds = %1
  br label %93

6:                                                ; preds = %1
  %7 = load ptr, ptr %2, align 8, !tbaa !32
  %8 = getelementptr inbounds nuw %struct.Cnf_Dat_t_, ptr %7, i32 0, i32 9
  call void @Vec_IntFreeP(ptr noundef %8)
  %9 = load ptr, ptr %2, align 8, !tbaa !32
  %10 = getelementptr inbounds nuw %struct.Cnf_Dat_t_, ptr %9, i32 0, i32 8
  %11 = load ptr, ptr %10, align 8, !tbaa !65
  %12 = icmp ne ptr %11, null
  br i1 %12, label %13, label %19

13:                                               ; preds = %6
  %14 = load ptr, ptr %2, align 8, !tbaa !32
  %15 = getelementptr inbounds nuw %struct.Cnf_Dat_t_, ptr %14, i32 0, i32 8
  %16 = load ptr, ptr %15, align 8, !tbaa !65
  call void @free(ptr noundef %16) #11
  %17 = load ptr, ptr %2, align 8, !tbaa !32
  %18 = getelementptr inbounds nuw %struct.Cnf_Dat_t_, ptr %17, i32 0, i32 8
  store ptr null, ptr %18, align 8, !tbaa !65
  br label %20

19:                                               ; preds = %6
  br label %20

20:                                               ; preds = %19, %13
  %21 = load ptr, ptr %2, align 8, !tbaa !32
  %22 = getelementptr inbounds nuw %struct.Cnf_Dat_t_, ptr %21, i32 0, i32 6
  %23 = load ptr, ptr %22, align 8, !tbaa !66
  %24 = icmp ne ptr %23, null
  br i1 %24, label %25, label %31

25:                                               ; preds = %20
  %26 = load ptr, ptr %2, align 8, !tbaa !32
  %27 = getelementptr inbounds nuw %struct.Cnf_Dat_t_, ptr %26, i32 0, i32 6
  %28 = load ptr, ptr %27, align 8, !tbaa !66
  call void @free(ptr noundef %28) #11
  %29 = load ptr, ptr %2, align 8, !tbaa !32
  %30 = getelementptr inbounds nuw %struct.Cnf_Dat_t_, ptr %29, i32 0, i32 6
  store ptr null, ptr %30, align 8, !tbaa !66
  br label %32

31:                                               ; preds = %20
  br label %32

32:                                               ; preds = %31, %25
  %33 = load ptr, ptr %2, align 8, !tbaa !32
  %34 = getelementptr inbounds nuw %struct.Cnf_Dat_t_, ptr %33, i32 0, i32 7
  %35 = load ptr, ptr %34, align 8, !tbaa !67
  %36 = icmp ne ptr %35, null
  br i1 %36, label %37, label %43

37:                                               ; preds = %32
  %38 = load ptr, ptr %2, align 8, !tbaa !32
  %39 = getelementptr inbounds nuw %struct.Cnf_Dat_t_, ptr %38, i32 0, i32 7
  %40 = load ptr, ptr %39, align 8, !tbaa !67
  call void @free(ptr noundef %40) #11
  %41 = load ptr, ptr %2, align 8, !tbaa !32
  %42 = getelementptr inbounds nuw %struct.Cnf_Dat_t_, ptr %41, i32 0, i32 7
  store ptr null, ptr %42, align 8, !tbaa !67
  br label %44

43:                                               ; preds = %32
  br label %44

44:                                               ; preds = %43, %37
  %45 = load ptr, ptr %2, align 8, !tbaa !32
  %46 = getelementptr inbounds nuw %struct.Cnf_Dat_t_, ptr %45, i32 0, i32 4
  %47 = load ptr, ptr %46, align 8, !tbaa !59
  %48 = getelementptr inbounds ptr, ptr %47, i64 0
  %49 = load ptr, ptr %48, align 8, !tbaa !18
  %50 = icmp ne ptr %49, null
  br i1 %50, label %51, label %61

51:                                               ; preds = %44
  %52 = load ptr, ptr %2, align 8, !tbaa !32
  %53 = getelementptr inbounds nuw %struct.Cnf_Dat_t_, ptr %52, i32 0, i32 4
  %54 = load ptr, ptr %53, align 8, !tbaa !59
  %55 = getelementptr inbounds ptr, ptr %54, i64 0
  %56 = load ptr, ptr %55, align 8, !tbaa !18
  call void @free(ptr noundef %56) #11
  %57 = load ptr, ptr %2, align 8, !tbaa !32
  %58 = getelementptr inbounds nuw %struct.Cnf_Dat_t_, ptr %57, i32 0, i32 4
  %59 = load ptr, ptr %58, align 8, !tbaa !59
  %60 = getelementptr inbounds ptr, ptr %59, i64 0
  store ptr null, ptr %60, align 8, !tbaa !18
  br label %62

61:                                               ; preds = %44
  br label %62

62:                                               ; preds = %61, %51
  %63 = load ptr, ptr %2, align 8, !tbaa !32
  %64 = getelementptr inbounds nuw %struct.Cnf_Dat_t_, ptr %63, i32 0, i32 4
  %65 = load ptr, ptr %64, align 8, !tbaa !59
  %66 = icmp ne ptr %65, null
  br i1 %66, label %67, label %73

67:                                               ; preds = %62
  %68 = load ptr, ptr %2, align 8, !tbaa !32
  %69 = getelementptr inbounds nuw %struct.Cnf_Dat_t_, ptr %68, i32 0, i32 4
  %70 = load ptr, ptr %69, align 8, !tbaa !59
  call void @free(ptr noundef %70) #11
  %71 = load ptr, ptr %2, align 8, !tbaa !32
  %72 = getelementptr inbounds nuw %struct.Cnf_Dat_t_, ptr %71, i32 0, i32 4
  store ptr null, ptr %72, align 8, !tbaa !59
  br label %74

73:                                               ; preds = %62
  br label %74

74:                                               ; preds = %73, %67
  %75 = load ptr, ptr %2, align 8, !tbaa !32
  %76 = getelementptr inbounds nuw %struct.Cnf_Dat_t_, ptr %75, i32 0, i32 5
  %77 = load ptr, ptr %76, align 8, !tbaa !45
  %78 = icmp ne ptr %77, null
  br i1 %78, label %79, label %85

79:                                               ; preds = %74
  %80 = load ptr, ptr %2, align 8, !tbaa !32
  %81 = getelementptr inbounds nuw %struct.Cnf_Dat_t_, ptr %80, i32 0, i32 5
  %82 = load ptr, ptr %81, align 8, !tbaa !45
  call void @free(ptr noundef %82) #11
  %83 = load ptr, ptr %2, align 8, !tbaa !32
  %84 = getelementptr inbounds nuw %struct.Cnf_Dat_t_, ptr %83, i32 0, i32 5
  store ptr null, ptr %84, align 8, !tbaa !45
  br label %86

85:                                               ; preds = %74
  br label %86

86:                                               ; preds = %85, %79
  %87 = load ptr, ptr %2, align 8, !tbaa !32
  %88 = icmp ne ptr %87, null
  br i1 %88, label %89, label %91

89:                                               ; preds = %86
  %90 = load ptr, ptr %2, align 8, !tbaa !32
  call void @free(ptr noundef %90) #11
  store ptr null, ptr %2, align 8, !tbaa !32
  br label %92

91:                                               ; preds = %86
  br label %92

92:                                               ; preds = %91, %89
  br label %93

93:                                               ; preds = %92, %5
  ret void
}