; Function Attrs: mustprogress nounwind willreturn uwtable
define void @Cnf_DataFree(ptr noundef %0) local_unnamed_addr #9 {
  %2 = icmp eq ptr %0, null
  br i1 %2, label %36, label %3

3:                                                ; preds = %1
  %4 = getelementptr inbounds nuw i8, ptr %0, i64 64
  %5 = load ptr, ptr %4, align 8, !tbaa !57
  %6 = icmp eq ptr %5, null
  br i1 %6, label %Vec_IntFreeP.exit, label %7

7:                                                ; preds = %3
  %8 = getelementptr inbounds nuw i8, ptr %5, i64 8
  %9 = load ptr, ptr %8, align 8, !tbaa !23
  %.not.i = icmp eq ptr %9, null
  br i1 %.not.i, label %12, label %.thread.i

.thread.i:                                        ; preds = %7
  tail call void @free(ptr noundef nonnull %9) #16
  %10 = load ptr, ptr %4, align 8, !tbaa !57
  %11 = getelementptr inbounds nuw i8, ptr %10, i64 8
  store ptr null, ptr %11, align 8, !tbaa !23
  br label %12

12:                                               ; preds = %.thread.i, %7
  %13 = phi ptr [ %10, %.thread.i ], [ %5, %7 ]
  tail call void @free(ptr noundef nonnull %13) #16
  store ptr null, ptr %4, align 8, !tbaa !57
  br label %Vec_IntFreeP.exit

Vec_IntFreeP.exit:                                ; preds = %3, %12
  %14 = getelementptr inbounds nuw i8, ptr %0, i64 56
  %15 = load ptr, ptr %14, align 8, !tbaa !58
  %.not = icmp eq ptr %15, null
  br i1 %.not, label %17, label %16

16:                                               ; preds = %Vec_IntFreeP.exit
  tail call void @free(ptr noundef nonnull %15) #16
  store ptr null, ptr %14, align 8, !tbaa !58
  br label %17

17:                                               ; preds = %Vec_IntFreeP.exit, %16
  %18 = getelementptr inbounds nuw i8, ptr %0, i64 40
  %19 = load ptr, ptr %18, align 8, !tbaa !59
  %.not28 = icmp eq ptr %19, null
  br i1 %.not28, label %21, label %20

20:                                               ; preds = %17
  tail call void @free(ptr noundef nonnull %19) #16
  store ptr null, ptr %18, align 8, !tbaa !59
  br label %21

21:                                               ; preds = %17, %20
  %22 = getelementptr inbounds nuw i8, ptr %0, i64 48
  %23 = load ptr, ptr %22, align 8, !tbaa !60
  %.not29 = icmp eq ptr %23, null
  br i1 %.not29, label %25, label %24

24:                                               ; preds = %21
  tail call void @free(ptr noundef nonnull %23) #16
  store ptr null, ptr %22, align 8, !tbaa !60
  br label %25

25:                                               ; preds = %21, %24
  %26 = getelementptr inbounds nuw i8, ptr %0, i64 24
  %27 = load ptr, ptr %26, align 8, !tbaa !51
  %28 = load ptr, ptr %27, align 8, !tbaa !16
  %.not30 = icmp eq ptr %28, null
  br i1 %.not30, label %30, label %.thread

.thread:                                          ; preds = %25
  tail call void @free(ptr noundef nonnull %28) #16
  %29 = load ptr, ptr %26, align 8, !tbaa !51
  store ptr null, ptr %29, align 8, !tbaa !16
  br label %30

30:                                               ; preds = %25, %.thread
  %31 = phi ptr [ %29, %.thread ], [ %27, %25 ]
  tail call void @free(ptr noundef nonnull %31) #16
  store ptr null, ptr %26, align 8, !tbaa !51
  %32 = getelementptr inbounds nuw i8, ptr %0, i64 32
  %33 = load ptr, ptr %32, align 8, !tbaa !42
  %.not32 = icmp eq ptr %33, null
  br i1 %.not32, label %35, label %34

34:                                               ; preds = %30
  tail call void @free(ptr noundef nonnull %33) #16
  br label %35

35:                                               ; preds = %34, %30
  tail call void @free(ptr noundef nonnull %0) #16
  br label %36

36:                                               ; preds = %35, %1
  ret void
}